; Function Attrs: nounwind uwtable
define dso_local i64 @dispell_init(ptr noundef readonly captures(none) %0) local_unnamed_addr #0 {
  %2 = getelementptr inbounds nuw i8, ptr %0, i64 32
  %3 = load i64, ptr %2, align 8
  %4 = tail call ptr @palloc0(i64 noundef 152) #6
  %5 = getelementptr inbounds nuw i8, ptr %4, i64 16
  tail call void @NIStartBuild(ptr noundef nonnull %5) #6
  %.not = icmp eq i64 %3, 0
  br i1 %.not, label %.critedge, label %.lr.ph

.lr.ph:                                           ; preds = %1
  %6 = inttoptr i64 %3 to ptr
  %7 = getelementptr inbounds nuw i8, ptr %6, i64 4
  %8 = getelementptr inbounds nuw i8, ptr %6, i64 16
  %9 = load i32, ptr %7, align 4
  %10 = icmp sgt i32 %9, 0
  br i1 %10, label %.lr.ph88, label %._crit_edge

.._crit_edge_crit_edge:                           ; preds = %57
  %11 = trunc nuw i8 %.1 to i1
  %12 = trunc nuw i8 %.128 to i1
  br label %._crit_edge

._crit_edge:                                      ; preds = %.._crit_edge_crit_edge, %.lr.ph
  %.051.lcssa = phi i1 [ %11, %.._crit_edge_crit_edge ], [ false, %.lr.ph ]
  %.02750.lcssa = phi i1 [ %12, %.._crit_edge_crit_edge ], [ false, %.lr.ph ]
  br i1 %.051.lcssa, label %61, label %.critedge

.lr.ph88:                                         ; preds = %.lr.ph, %57
  %.0294887 = phi i1 [ %.130, %57 ], [ false, %.lr.ph ]
  %.0275086 = phi i8 [ %.128, %57 ], [ 0, %.lr.ph ]
  %.05185 = phi i8 [ %.1, %57 ], [ 0, %.lr.ph ]
  %indvars.iv84 = phi i64 [ %indvars.iv.next, %57 ], [ 0, %.lr.ph ]
  %13 = load ptr, ptr %8, align 8
  %14 = getelementptr inbounds nuw %union.ListCell, ptr %13, i64 %indvars.iv84
  %15 = load ptr, ptr %14, align 8
  %16 = getelementptr inbounds nuw i8, ptr %15, i64 16
  %17 = load ptr, ptr %16, align 8
  %18 = tail call i32 @strcmp(ptr noundef nonnull dereferenceable(1) %17, ptr noundef nonnull dereferenceable(9) @.str) #7
  %19 = icmp eq i32 %18, 0
  br i1 %19, label %20, label %29

20:                                               ; preds = %.lr.ph88
  %21 = trunc nuw i8 %.0275086 to i1
  br i1 %21, label %22, label %26

22:                                               ; preds = %20
  %23 = tail call zeroext i1 @errstart_cold(i32 noundef 21, ptr noundef null) #8
  tail call void @llvm.assume(i1 %23)
  %24 = tail call i32 @errcode(i32 noundef 50856066) #6
  %25 = tail call i32 (ptr, ...) @errmsg(ptr noundef nonnull @.str.1) #6
  tail call void @errfinish(ptr noundef nonnull @.str.2, i32 noundef 53, ptr noundef nonnull @__func__.dispell_init) #6
  unreachable

26:                                               ; preds = %20
  %27 = tail call ptr @defGetString(ptr noundef nonnull %15) #6
  %28 = tail call ptr @get_tsearch_config_filename(ptr noundef %27, ptr noundef nonnull @.str.3) #6
  tail call void @NIImportDictionary(ptr noundef nonnull %5, ptr noundef %28) #6
  br label %57

29:                                               ; preds = %.lr.ph88
  %30 = tail call i32 @strcmp(ptr noundef nonnull dereferenceable(1) %17, ptr noundef nonnull dereferenceable(8) @.str.4) #7
  %31 = icmp eq i32 %30, 0
  br i1 %31, label %32, label %41

32:                                               ; preds = %29
  %33 = trunc nuw i8 %.05185 to i1
  br i1 %33, label %34, label %38

34:                                               ; preds = %32
  %35 = tail call zeroext i1 @errstart_cold(i32 noundef 21, ptr noundef null) #8
  tail call void @llvm.assume(i1 %35)
  %36 = tail call i32 @errcode(i32 noundef 50856066) #6
  %37 = tail call i32 (ptr, ...) @errmsg(ptr noundef nonnull @.str.5) #6
  tail call void @errfinish(ptr noundef nonnull @.str.2, i32 noundef 64, ptr noundef nonnull @__func__.dispell_init) #6
  unreachable

38:                                               ; preds = %32
  %39 = tail call ptr @defGetString(ptr noundef nonnull %15) #6
  %40 = tail call ptr @get_tsearch_config_filename(ptr noundef %39, ptr noundef nonnull @.str.6) #6
  tail call void @NIImportAffixes(ptr noundef nonnull %5, ptr noundef %40) #6
  br label %57

41:                                               ; preds = %29
  %42 = tail call i32 @strcmp(ptr noundef nonnull dereferenceable(1) %17, ptr noundef nonnull dereferenceable(10) @.str.7) #7
  %43 = icmp eq i32 %42, 0
  br i1 %43, label %44, label %51

44:                                               ; preds = %41
  br i1 %.0294887, label %45, label %49

45:                                               ; preds = %44
  %46 = tail call zeroext i1 @errstart_cold(i32 noundef 21, ptr noundef null) #8
  tail call void @llvm.assume(i1 %46)
  %47 = tail call i32 @errcode(i32 noundef 50856066) #6
  %48 = tail call i32 (ptr, ...) @errmsg(ptr noundef nonnull @.str.8) #6
  tail call void @errfinish(ptr noundef nonnull @.str.2, i32 noundef 75, ptr noundef nonnull @__func__.dispell_init) #6
  unreachable

49:                                               ; preds = %44
  %50 = tail call ptr @defGetString(ptr noundef nonnull %15) #6
  tail call void @readstoplist(ptr noundef %50, ptr noundef %4, ptr noundef nonnull @str_tolower) #6
  br label %57

51:                                               ; preds = %41
  %52 = getelementptr inbounds nuw i8, ptr %15, i64 16
  %53 = tail call zeroext i1 @errstart_cold(i32 noundef 21, ptr noundef null) #8
  tail call void @llvm.assume(i1 %53)
  %54 = tail call i32 @errcode(i32 noundef 50856066) #6
  %55 = load ptr, ptr %52, align 8
  %56 = tail call i32 (ptr, ...) @errmsg(ptr noundef nonnull @.str.9, ptr noundef %55) #6
  tail call void @errfinish(ptr noundef nonnull @.str.2, i32 noundef 84, ptr noundef nonnull @__func__.dispell_init) #6
  unreachable

57:                                               ; preds = %38, %49, %26
  %.130 = phi i1 [ %.0294887, %26 ], [ %.0294887, %38 ], [ true, %49 ]
  %.128 = phi i8 [ 1, %26 ], [ %.0275086, %38 ], [ %.0275086, %49 ]
  %.1 = phi i8 [ %.05185, %26 ], [ 1, %38 ], [ %.05185, %49 ]
  %indvars.iv.next = add nuw nsw i64 %indvars.iv84, 1
  %58 = load i32, ptr %7, align 4
  %59 = sext i32 %58 to i64
  %60 = icmp slt i64 %indvars.iv.next, %59
  br i1 %60, label %.lr.ph88, label %.._crit_edge_crit_edge

61:                                               ; preds = %._crit_edge
  br i1 %.02750.lcssa, label %62, label %67

62:                                               ; preds = %61
  tail call void @NISortDictionary(ptr noundef nonnull %5) #6
  tail call void @NISortAffixes(ptr noundef nonnull %5) #6
  tail call void @NIFinishBuild(ptr noundef nonnull %5) #6
  %63 = ptrtoint ptr %4 to i64
  ret i64 %63

.critedge:                                        ; preds = %1, %._crit_edge
  %64 = tail call zeroext i1 @errstart_cold(i32 noundef 21, ptr noundef null) #8
  tail call void @llvm.assume(i1 %64)
  %65 = tail call i32 @errcode(i32 noundef 50856066) #6
  %66 = tail call i32 (ptr, ...) @errmsg(ptr noundef nonnull @.str.10) #6
  tail call void @errfinish(ptr noundef nonnull @.str.2, i32 noundef 97, ptr noundef nonnull @__func__.dispell_init) #6
  unreachable

67:                                               ; preds = %61
  %68 = tail call zeroext i1 @errstart_cold(i32 noundef 21, ptr noundef null) #8
  tail call void @llvm.assume(i1 %68)
  %69 = tail call i32 @errcode(i32 noundef 50856066) #6
  %70 = tail call i32 (ptr, ...) @errmsg(ptr noundef nonnull @.str.11) #6
  tail call void @errfinish(ptr noundef nonnull @.str.2, i32 noundef 103, ptr noundef nonnull @__func__.dispell_init) #6
  unreachable
}